target datalayout = "e-m:e-p270:32:32-p271:32:32-p272:64:64-i64:64-i128:128-f80:128-n8:16:32:64-S128"
target triple = "x86_64-pc-linux-gnu"

%struct.CVodeMemRec = type { ptr, double, ptr, ptr, i32, i32, double, double, ptr, i32, i32, ptr, ptr, i32, i32, ptr, i32, i32, double, double, ptr, i32, i32, i32, i32, ptr, ptr, ptr, i32, i32, ptr, ptr, ptr, i32, double, i32, i32, double, ptr, ptr, ptr, i32, ptr, ptr, i32, i32, i32, double, ptr, ptr, ptr, [13 x ptr], ptr, ptr, ptr, ptr, ptr, ptr, ptr, ptr, ptr, [13 x ptr], ptr, ptr, ptr, ptr, [13 x ptr], ptr, ptr, ptr, ptr, ptr, i32, [13 x ptr], ptr, ptr, ptr, ptr, ptr, i32, i32, double, i32, i32, i32, i32, i32, double, double, double, double, double, double, double, double, [14 x double], [6 x double], [13 x double], double, double, double, double, double, double, double, double, i32, double, double, i32, double, double, ptr, i32, i64, i32, i32, i32, double, double, double, double, double, double, double, double, double, double, double, double, i64, i32, i64, i64, i64, i64, i64, i64, i64, i64, i64, ptr, i64, i64, ptr, i64, i64, ptr, i64, i64, i64, i64, i64, i64, i32, double, double, double, i64, i64, i64, i64, i64, i64, ptr, i32, ptr, i32, ptr, i32, ptr, i32, i32, i64, i32, ptr, i32, ptr, ptr, ptr, ptr, ptr, ptr, i32, i32, ptr, ptr, ptr, ptr, ptr, i64, double, i32, i32, i64, double, double, double, i32, i32, double, i32, i32, i32, i32, i32, i32, i32, i32, i32, i32, i32, i32, i32, i32, i32, i32, ptr, i64, i32, [6 x [4 x double]], i32, i64, ptr, i32, ptr, ptr, double, double, double, ptr, ptr, ptr, double, double, i32, i32, i64, ptr, i32, ptr, i32, i32, [13 x double], ptr, ptr, ptr, i32, ptr, i32 }

@.str = private unnamed_addr constant [124 x i8] c"generated/home/dtcxzyw/WorkSpace/Projects/compilers/llvm-opt-benchmark/bench/sundials/sundials/src/cvodes/cvodes_nls_stg1.c\00", align 1
@.str.1 = private unnamed_addr constant [26 x i8] c"cvode_mem = NULL illegal.\00", align 1
@__func__.cvNlsConvTestSensStg1 = private unnamed_addr constant [22 x i8] c"cvNlsConvTestSensStg1\00", align 1

; Function Attrs: nounwind uwtable
define internal i32 @cvNlsConvTestSensStg1(ptr noundef %0, ptr noundef %1, ptr noundef %2, double noundef %3, ptr noundef %4, ptr noundef %5) #0 {
  %7 = alloca i32, align 4
  %8 = alloca ptr, align 8
  %9 = alloca ptr, align 8
  %10 = alloca ptr, align 8
  %11 = alloca double, align 8
  %12 = alloca ptr, align 8
  %13 = alloca ptr, align 8
  %14 = alloca ptr, align 8
  %15 = alloca i32, align 4
  %16 = alloca i32, align 4
  %17 = alloca double, align 8
  %18 = alloca double, align 8
  store ptr %0, ptr %8, align 8
  store ptr %1, ptr %9, align 8
  store ptr %2, ptr %10, align 8
  store double %3, ptr %11, align 8
  store ptr %4, ptr %12, align 8
  store ptr %5, ptr %13, align 8
  %19 = load ptr, ptr %13, align 8
  %20 = icmp eq ptr %19, null
  br i1 %20, label %21, label %22

21:                                               ; preds = %6
  call void (ptr, i32, i32, ptr, ptr, ptr, ...) @cvProcessError(ptr noundef null, i32 noundef -21, i32 noundef 272, ptr noundef @__func__.cvNlsConvTestSensStg1, ptr noundef @.str, ptr noundef @.str.1)
  store i32 -21, ptr %7, align 4
  br label %95

22:                                               ; preds = %6
  %23 = load ptr, ptr %13, align 8
  store ptr %23, ptr %14, align 8
  %24 = load ptr, ptr %10, align 8
  %25 = load ptr, ptr %12, align 8
  %26 = call double @N_VWrmsNorm(ptr noundef %24, ptr noundef %25)
  store double %26, ptr %17, align 8
  %27 = load ptr, ptr %8, align 8
  %28 = call i32 @SUNNonlinSolGetCurIter(ptr noundef %27, ptr noundef %15)
  store i32 %28, ptr %16, align 4
  %29 = load i32, ptr %16, align 4
  %30 = icmp ne i32 %29, 0
  br i1 %30, label %31, label %32

31:                                               ; preds = %22
  store i32 -21, ptr %7, align 4
  br label %95

32:                                               ; preds = %22
  %33 = load i32, ptr %15, align 4
  %34 = icmp sgt i32 %33, 0
  br i1 %34, label %35, label %61

35:                                               ; preds = %32
  %36 = load ptr, ptr %14, align 8
  %37 = getelementptr inbounds %struct.CVodeMemRec, ptr %36, i32 0, i32 103
  %38 = load double, ptr %37, align 8
  %39 = fmul double 3.000000e-01, %38
  %40 = load double, ptr %17, align 8
  %41 = load ptr, ptr %14, align 8
  %42 = getelementptr inbounds %struct.CVodeMemRec, ptr %41, i32 0, i32 104
  %43 = load double, ptr %42, align 8
  %44 = fdiv double %40, %43
  %45 = fcmp ogt double %39, %44
  br i1 %45, label %46, label %51

46:                                               ; preds = %35
  %47 = load ptr, ptr %14, align 8
  %48 = getelementptr inbounds %struct.CVodeMemRec, ptr %47, i32 0, i32 103
  %49 = load double, ptr %48, align 8
  %50 = fmul double 3.000000e-01, %49
  br label %57

51:                                               ; preds = %35
  %52 = load double, ptr %17, align 8
  %53 = load ptr, ptr %14, align 8
  %54 = getelementptr inbounds %struct.CVodeMemRec, ptr %53, i32 0, i32 104
  %55 = load double, ptr %54, align 8
  %56 = fdiv double %52, %55
  br label %57

57:                                               ; preds = %51, %46
  %58 = phi double [ %50, %46 ], [ %56, %51 ]
  %59 = load ptr, ptr %14, align 8
  %60 = getelementptr inbounds %struct.CVodeMemRec, ptr %59, i32 0, i32 103
  store double %58, ptr %60, align 8
  br label %61

61:                                               ; preds = %57, %32
  %62 = load double, ptr %17, align 8
  %63 = load ptr, ptr %14, align 8
  %64 = getelementptr inbounds %struct.CVodeMemRec, ptr %63, i32 0, i32 103
  %65 = load double, ptr %64, align 8
  %66 = fcmp olt double 1.000000e+00, %65
  br i1 %66, label %67, label %68

67:                                               ; preds = %61
  br label %72

68:                                               ; preds = %61
  %69 = load ptr, ptr %14, align 8
  %70 = getelementptr inbounds %struct.CVodeMemRec, ptr %69, i32 0, i32 103
  %71 = load double, ptr %70, align 8
  br label %72

72:                                               ; preds = %68, %67
  %73 = phi double [ 1.000000e+00, %67 ], [ %71, %68 ]
  %74 = fmul double %62, %73
  %75 = load double, ptr %11, align 8
  %76 = fdiv double %74, %75
  store double %76, ptr %18, align 8
  %77 = load double, ptr %18, align 8
  %78 = fcmp ole double %77, 1.000000e+00
  br i1 %78, label %79, label %80

79:                                               ; preds = %72
  store i32 0, ptr %7, align 4
  br label %95

80:                                               ; preds = %72
  %81 = load i32, ptr %15, align 4
  %82 = icmp sge i32 %81, 1
  br i1 %82, label %83, label %91

83:                                               ; preds = %80
  %84 = load double, ptr %17, align 8
  %85 = load ptr, ptr %14, align 8
  %86 = getelementptr inbounds %struct.CVodeMemRec, ptr %85, i32 0, i32 104
  %87 = load double, ptr %86, align 8
  %88 = fmul double 2.000000e+00, %87
  %89 = fcmp ogt double %84, %88
  br i1 %89, label %90, label %91

90:                                               ; preds = %83
  store i32 902, ptr %7, align 4
  br label %95

91:                                               ; preds = %83, %80
  %92 = load double, ptr %17, align 8
  %93 = load ptr, ptr %14, align 8
  %94 = getelementptr inbounds %struct.CVodeMemRec, ptr %93, i32 0, i32 104
  store double %92, ptr %94, align 8
  store i32 901, ptr %7, align 4
  br label %95

95:                                               ; preds = %91, %90, %79, %31, %21
  %96 = load i32, ptr %7, align 4
  ret i32 %96
}