; Function Attrs: nounwind uwtable
define internal range(i32 -21, 903) i32 @cvNlsConvTestSensStg1(ptr noundef %0, ptr readnone captures(none) %1, ptr noundef %2, double noundef %3, ptr noundef %4, ptr noundef %5) #0 {
  %7 = alloca i32, align 4
  %8 = icmp eq ptr %5, null
  br i1 %8, label %9, label %10

9:                                                ; preds = %6
  tail call void (ptr, i32, i32, ptr, ptr, ptr, ...) @cvProcessError(ptr noundef null, i32 noundef -21, i32 noundef 272, ptr noundef nonnull @__func__.cvNlsConvTestSensStg1, ptr noundef nonnull @.str, ptr noundef nonnull @.str.1) #2
  br label %38

10:                                               ; preds = %6
  %11 = tail call double @N_VWrmsNorm(ptr noundef %2, ptr noundef %4) #2
  %12 = call i32 @SUNNonlinSolGetCurIter(ptr noundef %0, ptr noundef nonnull %7) #2
  %.not = icmp eq i32 %12, 0
  br i1 %.not, label %13, label %38

13:                                               ; preds = %10
  %14 = load i32, ptr %7, align 4
  %15 = icmp sgt i32 %14, 0
  %16 = getelementptr inbounds nuw i8, ptr %5, i64 1352
  %17 = load double, ptr %16, align 8
  br i1 %15, label %18, label %.thread

18:                                               ; preds = %13
  %19 = fmul double %17, 3.000000e-01
  %20 = getelementptr inbounds nuw i8, ptr %5, i64 1360
  %21 = load double, ptr %20, align 8
  %22 = fdiv double %11, %21
  %23 = fcmp ogt double %19, %22
  %. = select i1 %23, double %19, double %22
  store double %., ptr %16, align 8
  %24 = fcmp ogt double %., 1.000000e+00
  %25 = select i1 %24, double 1.000000e+00, double %.
  %26 = fmul double %11, %25
  %27 = fdiv double %26, %3
  %28 = fcmp ugt double %27, 1.000000e+00
  br i1 %28, label %34, label %38

.thread:                                          ; preds = %13
  %29 = fcmp ogt double %17, 1.000000e+00
  %30 = select i1 %29, double 1.000000e+00, double %17
  %31 = fmul double %11, %30
  %32 = fdiv double %31, %3
  %33 = fcmp ugt double %32, 1.000000e+00
  br i1 %33, label %.thread26, label %38

34:                                               ; preds = %18
  %35 = fmul double %21, 2.000000e+00
  %36 = fcmp ogt double %11, %35
  br i1 %36, label %38, label %.thread26

.thread26:                                        ; preds = %.thread, %34
  %37 = getelementptr inbounds nuw i8, ptr %5, i64 1360
  store double %11, ptr %37, align 8
  br label %38

38:                                               ; preds = %.thread, %34, %18, %10, %.thread26, %9
  %.0 = phi i32 [ -21, %9 ], [ 901, %.thread26 ], [ -21, %10 ], [ 0, %18 ], [ 902, %34 ], [ 0, %.thread ]
  ret i32 %.0
}